
I2C-7segment.elf:     file format elf32-littleriscv


Disassembly of section .init:

00000000 <InterruptVector>:
	void InterruptVectorDefault()  __attribute__((naked)) __attribute((section(".init"))) __attribute((naked));

	void InterruptVectorDefault( void )
	{
		#if !defined(FUNCONF_TINYVECTOR) || !FUNCONF_TINYVECTOR
			asm volatile( DEFAULT_INTERRUPT_VECTOR_CONTENTS );
   0:	13e0006f          	j	13e <handle_reset>
   4:	00000000          	.word	0x00000000
   8:	000001f6          	.word	0x000001f6
   c:	000001aa          	.word	0x000001aa
	...
  30:	000001aa          	.word	0x000001aa
  34:	00000000          	.word	0x00000000
  38:	000001aa          	.word	0x000001aa
  3c:	00000000          	.word	0x00000000
  40:	000001aa          	.word	0x000001aa
  44:	000001aa          	.word	0x000001aa
  48:	000001aa          	.word	0x000001aa
  4c:	000001aa          	.word	0x000001aa
  50:	000001aa          	.word	0x000001aa
  54:	000001aa          	.word	0x000001aa
  58:	000001aa          	.word	0x000001aa
  5c:	000001aa          	.word	0x000001aa
  60:	000001aa          	.word	0x000001aa
  64:	000001aa          	.word	0x000001aa
  68:	000001aa          	.word	0x000001aa
  6c:	000001aa          	.word	0x000001aa
  70:	000001aa          	.word	0x000001aa
  74:	000001aa          	.word	0x000001aa
  78:	00000434          	.word	0x00000434
  7c:	000005d0          	.word	0x000005d0
  80:	000001aa          	.word	0x000001aa
  84:	000001aa          	.word	0x000001aa
  88:	000001aa          	.word	0x000001aa
  8c:	000001aa          	.word	0x000001aa
  90:	000001aa          	.word	0x000001aa
  94:	000001aa          	.word	0x000001aa
  98:	000001aa          	.word	0x000001aa
  9c:	0000                	unimp
	...

Disassembly of section .text:

000000a0 <PrintHex>:
	while( (*DMDATA0) & 0x80 );
  a0:	e00007b7          	lui	a5,0xe0000
  a4:	0f478793          	addi	a5,a5,244 # e00000f4 <_eusrstack+0xbffff8f4>
  a8:	4398                	lw	a4,0(a5)
  aa:	08077713          	andi	a4,a4,128
  ae:	ff6d                	bnez	a4,a8 <PrintHex+0x8>
	*DMDATA0 = 0x78302088; //" 0x"
  b0:	78302737          	lui	a4,0x78302
  b4:	08870713          	addi	a4,a4,136 # 78302088 <_eusrstack+0x58301888>
		while( (*DMDATA0) & 0x80 );
  b8:	e00006b7          	lui	a3,0xe0000
	*DMDATA0 = 0x78302088; //" 0x"
  bc:	c398                	sw	a4,0(a5)
		while( (*DMDATA0) & 0x80 );
  be:	0f468693          	addi	a3,a3,244 # e00000f4 <_eusrstack+0xbffff8f4>
	for( shift = 28; shift >= 0; shift -= 4 )
  c2:	4771                	li	a4,28
		s += ( s < 10 ) ? '0' : ('a' - 10);
  c4:	45a5                	li	a1,9
	for( shift = 28; shift >= 0; shift -= 4 )
  c6:	5671                	li	a2,-4
		while( (*DMDATA0) & 0x80 );
  c8:	429c                	lw	a5,0(a3)
  ca:	0807f793          	andi	a5,a5,128
  ce:	ffed                	bnez	a5,c8 <PrintHex+0x28>
		int s = (n>>shift) & 0xf;
  d0:	00e55333          	srl	t1,a0,a4
  d4:	00f37313          	andi	t1,t1,15
		s += ( s < 10 ) ? '0' : ('a' - 10);
  d8:	0065b7b3          	sltu	a5,a1,t1
  dc:	40f007b3          	neg	a5,a5
  e0:	0277f793          	andi	a5,a5,39
  e4:	03078793          	addi	a5,a5,48
  e8:	979a                	add	a5,a5,t1
		*DMDATA0 = 0x85 | (s<<8); //" 0x"
  ea:	07a2                	slli	a5,a5,0x8
  ec:	0857e793          	ori	a5,a5,133
  f0:	c29c                	sw	a5,0(a3)
	for( shift = 28; shift >= 0; shift -= 4 )
  f2:	1771                	addi	a4,a4,-4
  f4:	fcc71ae3          	bne	a4,a2,c8 <PrintHex+0x28>
}
  f8:	8082                	ret

000000fa <hc595_shiftOut8>:
 * RCLK remains low while shifting.
 * One rising edge on RCLK copies the completed byte to the outputs.
 */
static void hc595_shiftOut8(uint8_t value)
{
    funDigitalWrite(HC595_LATCH_PIN, 0);
  fa:	40011337          	lui	t1,0x40011
  fe:	001007b7          	lui	a5,0x100
 102:	00f32823          	sw	a5,16(t1) # 40011010 <_eusrstack+0x20010810>

    for (uint8_t i = 0; i < 8; i++)
    {
        funDigitalWrite(HC595_DATA_PIN, value & 0x01);
 106:	40030593          	addi	a1,t1,1024
    funDigitalWrite(HC595_LATCH_PIN, 0);
 10a:	47a1                	li	a5,8
        value >>= 1;

        funDigitalWrite(HC595_CLOCK_PIN, 1);
 10c:	80030713          	addi	a4,t1,-2048
 110:	4291                	li	t0,4
        funDigitalWrite(HC595_DATA_PIN, value & 0x01);
 112:	00157693          	andi	a3,a0,1
 116:	04000613          	li	a2,64
 11a:	e299                	bnez	a3,120 <hc595_shiftOut8+0x26>
 11c:	00400637          	lui	a2,0x400
 120:	c990                	sw	a2,16(a1)
        funDigitalWrite(HC595_CLOCK_PIN, 1);
 122:	00572823          	sw	t0,16(a4)
        funDigitalWrite(HC595_CLOCK_PIN, 0);
 126:	000406b7          	lui	a3,0x40
    for (uint8_t i = 0; i < 8; i++)
 12a:	17fd                	addi	a5,a5,-1 # fffff <I2C_7segment.c.aa46ddcc+0xfdcf8>
        funDigitalWrite(HC595_CLOCK_PIN, 0);
 12c:	cb14                	sw	a3,16(a4)
    for (uint8_t i = 0; i < 8; i++)
 12e:	0ff7f793          	zext.b	a5,a5
        value >>= 1;
 132:	8105                	srli	a0,a0,0x1
    for (uint8_t i = 0; i < 8; i++)
 134:	fff9                	bnez	a5,112 <hc595_shiftOut8+0x18>
    }

    funDigitalWrite(HC595_LATCH_PIN, 1);
 136:	47c1                	li	a5,16
 138:	00f32823          	sw	a5,16(t1)
}
 13c:	8082                	ret

0000013e <handle_reset>:

#if defined( CH32V003 ) || defined( CH32X03x ) || defined(CH32V00x)

void handle_reset( void )
{
	asm volatile( "\n\
 13e:	20000197          	auipc	gp,0x20000
 142:	2be18193          	addi	gp,gp,702 # 200003fc <__global_pointer$>
 146:	40418113          	addi	sp,gp,1028 # 20000800 <_eusrstack>
 14a:	6509                	lui	a0,0x2
 14c:	88050513          	addi	a0,a0,-1920 # 1880 <ch32fun.c.a5d4940c+0x6d2>
 150:	30051073          	csrw	mstatus,a0
 154:	00000697          	auipc	a3,0x0
 158:	eac68693          	addi	a3,a3,-340 # 0 <InterruptVector>
 15c:	0036e693          	ori	a3,a3,3
 160:	30569073          	csrw	mtvec,a3
#endif
	: : : "a0", "a3", "memory");

	// Careful: Use registers to prevent overwriting of self-data.
	// This clears out BSS.
asm volatile(
 164:	c0c18513          	addi	a0,gp,-1012 # 20000008 <i2c_slave_state>
 168:	c3818593          	addi	a1,gp,-968 # 20000034 <_ebss>
 16c:	4601                	li	a2,0
 16e:	00b55663          	bge	a0,a1,17a <handle_reset+0x3c>
 172:	c110                	sw	a2,0(a0)
 174:	0511                	addi	a0,a0,4
 176:	feb54ee3          	blt	a0,a1,172 <handle_reset+0x34>
 17a:	65400513          	li	a0,1620
 17e:	c0418593          	addi	a1,gp,-1020 # 20000000 <i2c_registers>
 182:	c0c18613          	addi	a2,gp,-1012 # 20000008 <i2c_slave_state>
 186:	00c58863          	beq	a1,a2,196 <handle_reset+0x58>
 18a:	4114                	lw	a3,0(a0)
 18c:	c194                	sw	a3,0(a1)
 18e:	0511                	addi	a0,a0,4
 190:	0591                	addi	a1,a1,4
 192:	fec59ae3          	bne	a1,a2,186 <handle_reset+0x48>
);

#if defined( FUNCONF_SYSTICK_USE_HCLK ) && FUNCONF_SYSTICK_USE_HCLK
	SysTick->CTLR = 5;
#else
	SysTick->CTLR = 1;
 196:	e000f7b7          	lui	a5,0xe000f
 19a:	4705                	li	a4,1
 19c:	c398                	sw	a4,0(a5)
#endif

	// set mepc to be main as the root app.
asm volatile(
 19e:	25800793          	li	a5,600
 1a2:	34179073          	csrw	mepc,a5
 1a6:	30200073          	mret

000001aa <ADC1_2_IRQHandler>:

// Return the Machine Exception Program Register (MEPC)
static inline uint32_t __get_MEPC(void)
{
	uint32_t result;
	__ASM volatile( ADD_ARCH_ZICSR "csrr %0," "mepc" : "=r"(result));
 1aa:	34102573          	csrr	a0,mepc
	PrintHex( __get_MEPC() ); // "addr2line -e debugprintfdemo.elf 0x000007e6" ---> debugprintfdemo.c:45
 1ae:	3dcd                	jal	a0 <PrintHex>
	__ASM volatile( ADD_ARCH_ZICSR "csrr %0, mstatus": "=r"(result) );
 1b0:	30002573          	csrr	a0,mstatus
	PrintHex( __get_MSTATUS() );
 1b4:	35f5                	jal	a0 <PrintHex>

// Return the Machine Trap Value Register (MTVAL)
static inline uint32_t __get_MTVAL(void)
{
	uint32_t result;
	__ASM volatile( ADD_ARCH_ZICSR "csrr %0," "mtval" : "=r" (result) );
 1b6:	34302573          	csrr	a0,mtval
	PrintHex( __get_MTVAL() );
 1ba:	35dd                	jal	a0 <PrintHex>
	__ASM volatile( ADD_ARCH_ZICSR "csrr %0," "mcause": "=r"(result));
 1bc:	34202573          	csrr	a0,mcause
	PrintHex( __get_MCAUSE() );
 1c0:	35c5                	jal	a0 <PrintHex>
	while( (*DMDATA0) & 0x80 );
 1c2:	e00007b7          	lui	a5,0xe0000
 1c6:	0f478793          	addi	a5,a5,244 # e00000f4 <_eusrstack+0xbffff8f4>
 1ca:	4398                	lw	a4,0(a5)
 1cc:	08077713          	andi	a4,a4,128
 1d0:	ff6d                	bnez	a4,1ca <ADC1_2_IRQHandler+0x20>
	*DMDATA0 = 0x0a85;
 1d2:	6705                	lui	a4,0x1
 1d4:	a8570713          	addi	a4,a4,-1403 # a85 <_data_lma+0x431>
 1d8:	c398                	sw	a4,0(a5)
	while( (*DMDATA0) & 0x80 );
 1da:	e00007b7          	lui	a5,0xe0000
 1de:	0f478793          	addi	a5,a5,244 # e00000f4 <_eusrstack+0xbffff8f4>
 1e2:	4398                	lw	a4,0(a5)
 1e4:	08077713          	andi	a4,a4,128
 1e8:	ff6d                	bnez	a4,1e2 <ADC1_2_IRQHandler+0x38>
	*DMDATA0 = 0xaaaaaa83;
 1ea:	aaaab737          	lui	a4,0xaaaab
 1ee:	a8370713          	addi	a4,a4,-1405 # aaaaaa83 <_eusrstack+0x8aaaa283>
 1f2:	c398                	sw	a4,0(a5)
	asm volatile( "1: j 1b" );
 1f4:	a001                	j	1f4 <ADC1_2_IRQHandler+0x4a>

000001f6 <NMI_Handler>:
	RCC->INTR |= RCC_CSSC;	// clear the clock security int flag
 1f6:	40021737          	lui	a4,0x40021
 1fa:	471c                	lw	a5,8(a4)
 1fc:	008006b7          	lui	a3,0x800
 200:	8fd5                	or	a5,a5,a3
 202:	c71c                	sw	a5,8(a4)

00000204 <SystemInit>:
//#define BASE_CTLR	(((FUNCONF_HSITRIM) << 3) | HSEBYP | RCC_CSS)	// disable HSI in HSE modes

	// Flash latency settings.
#if defined(CH32V003)
	#if FUNCONF_SYSTEM_CORE_CLOCK > 25000000
		FLASH->ACTLR = FLASH_ACTLR_LATENCY_1;               // +1 Cycle Latency
 204:	400227b7          	lui	a5,0x40022
 208:	4705                	li	a4,1
 20a:	c398                	sw	a4,0(a5)
#elif defined(FUNCONF_USE_HSI) && FUNCONF_USE_HSI
	#if defined(CH32V30x) || defined(CH32V20x) || defined(CH32L103) || defined(CH32V10x)
		EXTEN->EXTEN_CTR |= EXTEN_PLL_HSI_PRE;
	#endif
	#if defined(FUNCONF_USE_PLL) && FUNCONF_USE_PLL
		RCC->CFGR0 = BASE_CFGR0;
 20c:	400217b7          	lui	a5,0x40021
		RCC->CTLR  = BASE_CTLR | RCC_HSION | RCC_PLLON; 			// Use HSI, enable PLL.
 210:	01080737          	lui	a4,0x1080
		RCC->CFGR0 = BASE_CFGR0;
 214:	0007a223          	sw	zero,4(a5) # 40021004 <_eusrstack+0x20020804>
		RCC->CTLR  = BASE_CTLR | RCC_HSION | RCC_PLLON; 			// Use HSI, enable PLL.
 218:	08170713          	addi	a4,a4,129 # 1080081 <I2C_7segment.c.aa46ddcc+0x107dd7a>
 21c:	c398                	sw	a4,0(a5)
		FLASH->ACTLR = FLASH_ACTLR_LATENCY_0;
	#endif
#endif

#ifndef CH5xx
	RCC->INTR  = 0x009F0000;                               // Clear PLL, CSSC, HSE, HSI and LSI ready flags.
 21e:	009f0737          	lui	a4,0x9f0
 222:	c798                	sw	a4,8(a5)
#endif

#if defined(FUNCONF_USE_PLL) && FUNCONF_USE_PLL && !defined(CH5xx)
	while((RCC->CTLR & RCC_PLLRDY) == 0) {};                       	// Wait till PLL is ready
 224:	4398                	lw	a4,0(a5)
 226:	00671693          	slli	a3,a4,0x6
 22a:	fe06dde3          	bgez	a3,224 <SystemInit+0x20>
	#if defined(CH32H41x)
		RCC->PLLCFGR |= RCC_SYSPLL_GATE;
	#endif
	uint32_t tmp32 = RCC->CFGR0 & ~(0x03);							// clr the SW
 22e:	43d8                	lw	a4,4(a5)
	RCC->CFGR0 = tmp32 | RCC_SW_PLL;                       			// Select PLL as system clock source
	while ((RCC->CFGR0 & (uint32_t)RCC_SWS) != (uint32_t)0x08); 	// Wait till PLL is used as system clock source
 230:	400216b7          	lui	a3,0x40021
	uint32_t tmp32 = RCC->CFGR0 & ~(0x03);							// clr the SW
 234:	9b71                	andi	a4,a4,-4
	RCC->CFGR0 = tmp32 | RCC_SW_PLL;                       			// Select PLL as system clock source
 236:	00276713          	ori	a4,a4,2
 23a:	c3d8                	sw	a4,4(a5)
	while ((RCC->CFGR0 & (uint32_t)RCC_SWS) != (uint32_t)0x08); 	// Wait till PLL is used as system clock source
 23c:	4721                	li	a4,8
 23e:	42dc                	lw	a5,4(a3)
 240:	8bb1                	andi	a5,a5,12
 242:	fee79ee3          	bne	a5,a4,23e <SystemInit+0x3a>
	*DMDATA1 = 0x00;
 246:	e00007b7          	lui	a5,0xe0000
 24a:	0e07ac23          	sw	zero,248(a5) # e00000f8 <_eusrstack+0xbffff8f8>
	*DMDATA0 = 0x80;
 24e:	08000713          	li	a4,128
 252:	0ee7aa23          	sw	a4,244(a5)
	SetupDebugPrintf();
#endif
#if defined(FUNCONF_SUPPORT_CONSTRUCTORS) && FUNCONF_SUPPORT_CONSTRUCTORS
	CallConstructors();
#endif
}
 256:	8082                	ret

00000258 <main>:
            return 0;
    }
}

int main(void)
{
 258:	1141                	addi	sp,sp,-16
 25a:	c606                	sw	ra,12(sp)
 25c:	c422                	sw	s0,8(sp)
 25e:	c226                	sw	s1,4(sp)
    SystemInit();
 260:	3755                	jal	204 <SystemInit>
	uint32_t targend = SysTick->CNT + n;
 262:	e000f6b7          	lui	a3,0xe000f
 266:	4698                	lw	a4,8(a3)
 268:	000927b7          	lui	a5,0x92
 26c:	7c078793          	addi	a5,a5,1984 # 927c0 <I2C_7segment.c.aa46ddcc+0x904b9>
 270:	973e                	add	a4,a4,a5
	while( ((int32_t)( SysTick->CNT - targend )) < 0 );
 272:	469c                	lw	a5,8(a3)
 274:	8f99                	sub	a5,a5,a4
 276:	fe07cee3          	bltz	a5,272 <main+0x1a>
    Delay_Ms(100);

    funGpioInitAll();
 27a:	40021737          	lui	a4,0x40021
 27e:	4f1c                	lw	a5,24(a4)

    /* TPIC6B595 output-control pins */
    funPinMode(HC595_LATCH_PIN, GPIO_CFGLR_OUT_10Mhz_PP);
 280:	fff10637          	lui	a2,0xfff10
 284:	167d                	addi	a2,a2,-1 # fff0ffff <_eusrstack+0xdff0f7ff>
    funGpioInitAll();
 286:	0357e793          	ori	a5,a5,53
 28a:	cf1c                	sw	a5,24(a4)
    funPinMode(HC595_LATCH_PIN, GPIO_CFGLR_OUT_10Mhz_PP);
 28c:	400117b7          	lui	a5,0x40011
 290:	4394                	lw	a3,0(a5)
    funPinMode(HC595_CLOCK_PIN, GPIO_CFGLR_OUT_10Mhz_PP);
 292:	757d                	lui	a0,0xfffff
 294:	0ff50513          	addi	a0,a0,255 # fffff0ff <_eusrstack+0xdfffe8ff>
    funPinMode(HC595_LATCH_PIN, GPIO_CFGLR_OUT_10Mhz_PP);
 298:	8ef1                	and	a3,a3,a2
 29a:	6641                	lui	a2,0x10
 29c:	8ed1                	or	a3,a3,a2
 29e:	c394                	sw	a3,0(a5)
    funPinMode(HC595_CLOCK_PIN, GPIO_CFGLR_OUT_10Mhz_PP);
 2a0:	80078613          	addi	a2,a5,-2048 # 40010800 <_eusrstack+0x20010000>
 2a4:	4214                	lw	a3,0(a2)
    funPinMode(HC595_DATA_PIN,  GPIO_CFGLR_OUT_10Mhz_PP);
 2a6:	f1000337          	lui	t1,0xf1000
 2aa:	137d                	addi	t1,t1,-1 # f0ffffff <_eusrstack+0xd0fff7ff>
    funPinMode(HC595_CLOCK_PIN, GPIO_CFGLR_OUT_10Mhz_PP);
 2ac:	8ee9                	and	a3,a3,a0
 2ae:	1006e693          	ori	a3,a3,256
 2b2:	c214                	sw	a3,0(a2)
    funPinMode(HC595_DATA_PIN,  GPIO_CFGLR_OUT_10Mhz_PP);
 2b4:	40078693          	addi	a3,a5,1024
 2b8:	428c                	lw	a1,0(a3)
        NULL,
        false
    );

    uint8_t last_character = 0xFF;
    uint8_t last_decimal_point = 0xFF;
 2ba:	0ff00413          	li	s0,255
    funPinMode(HC595_DATA_PIN,  GPIO_CFGLR_OUT_10Mhz_PP);
 2be:	0065f5b3          	and	a1,a1,t1
 2c2:	01000337          	lui	t1,0x1000
 2c6:	0065e5b3          	or	a1,a1,t1
 2ca:	c28c                	sw	a1,0(a3)
    funDigitalWrite(HC595_LATCH_PIN, 0);
 2cc:	001005b7          	lui	a1,0x100
 2d0:	cb8c                	sw	a1,16(a5)
    funDigitalWrite(HC595_CLOCK_PIN, 0);
 2d2:	000405b7          	lui	a1,0x40
 2d6:	ca0c                	sw	a1,16(a2)
    funDigitalWrite(HC595_DATA_PIN,  0);
 2d8:	00400637          	lui	a2,0x400
 2dc:	ca90                	sw	a2,16(a3)
    funPinMode(PC1, GPIO_CFGLR_OUT_10Mhz_AF_OD);
 2de:	4394                	lw	a3,0(a5)
    funPinMode(PC2, GPIO_CFGLR_OUT_10Mhz_AF_OD);
 2e0:	6605                	lui	a2,0x1
 2e2:	d0060613          	addi	a2,a2,-768 # d00 <_data_lma+0x6ac>
    funPinMode(PC1, GPIO_CFGLR_OUT_10Mhz_AF_OD);
 2e6:	f0f6f693          	andi	a3,a3,-241
 2ea:	0d06e693          	ori	a3,a3,208
 2ee:	c394                	sw	a3,0(a5)
    funPinMode(PC2, GPIO_CFGLR_OUT_10Mhz_AF_OD);
 2f0:	4394                	lw	a3,0(a5)
 2f2:	8ee9                	and	a3,a3,a0
 2f4:	8ed1                	or	a3,a3,a2
 2f6:	c394                	sw	a3,0(a5)
    bool writing;
    bool address2matched;
} i2c_slave_state;

void SetupI2CSlave(uint8_t address, volatile uint8_t* registers, uint8_t size, i2c_write_callback_t write_callback, i2c_read_callback_t read_callback, bool read_only) {
    i2c_slave_state.first_write = 1;
 2f8:	4685                	li	a3,1
 2fa:	c0d19623          	sh	a3,-1012(gp) # 20000008 <i2c_slave_state>
    i2c_slave_state.offset = 0;
    i2c_slave_state.position = 0;
 2fe:	c0c18793          	addi	a5,gp,-1012 # 20000008 <i2c_slave_state>
    i2c_slave_state.registers1 = registers;
 302:	c0418693          	addi	a3,gp,-1020 # 20000000 <i2c_registers>
 306:	c3d4                	sw	a3,4(a5)
    i2c_slave_state.size1 = size;
 308:	4689                	li	a3,2
 30a:	00d78423          	sb	a3,8(a5)
    i2c_slave_state.registers2 = NULL;
 30e:	0007a623          	sw	zero,12(a5)
    i2c_slave_state.position = 0;
 312:	00078123          	sb	zero,2(a5)
    i2c_slave_state.size2 = 0;
 316:	00078823          	sb	zero,16(a5)
    i2c_slave_state.write_callback1 = write_callback;
 31a:	0007aa23          	sw	zero,20(a5)
    i2c_slave_state.read_callback1 = read_callback;
 31e:	0007ac23          	sw	zero,24(a5)
    i2c_slave_state.read_only1 = read_only;
 322:	00078e23          	sb	zero,28(a5)
    i2c_slave_state.write_callback2 = NULL;
 326:	0207a023          	sw	zero,32(a5)
    i2c_slave_state.read_callback2 = NULL;
 32a:	0207a223          	sw	zero,36(a5)
    i2c_slave_state.read_only2 = false;
 32e:	02078423          	sb	zero,40(a5)

    // Enable I2C1
    RCC->APB1PCENR |= RCC_APB1Periph_I2C1;
 332:	4f5c                	lw	a5,28(a4)
 334:	002006b7          	lui	a3,0x200
	NVIC->IENR[((uint32_t)(IRQn) >> 5)] = (1 << ((uint32_t)(IRQn) & 0x1F));
 338:	80000637          	lui	a2,0x80000
 33c:	8fd5                	or	a5,a5,a3
 33e:	cf5c                	sw	a5,28(a4)

    // Reset I2C1 to init all regs
    RCC->APB1PRSTR |= RCC_APB1Periph_I2C1;
 340:	4b1c                	lw	a5,16(a4)

    /* Start with the display blank. */
    hc595_shiftOut8(0x00);
 342:	4501                	li	a0,0
 344:	8fd5                	or	a5,a5,a3
 346:	cb1c                	sw	a5,16(a4)
    RCC->APB1PRSTR &= ~RCC_APB1Periph_I2C1;
 348:	4b1c                	lw	a5,16(a4)
 34a:	ffe006b7          	lui	a3,0xffe00
 34e:	16fd                	addi	a3,a3,-1 # ffdfffff <_eusrstack+0xdfdff7ff>
 350:	8ff5                	and	a5,a5,a3
 352:	cb1c                	sw	a5,16(a4)

    I2C1->CTLR1 |= I2C_CTLR1_SWRST;
 354:	400057b7          	lui	a5,0x40005
 358:	4007d703          	lhu	a4,1024(a5) # 40005400 <_eusrstack+0x20004c00>
 35c:	66a1                	lui	a3,0x8
 35e:	8f55                	or	a4,a4,a3
 360:	40e79023          	sh	a4,1024(a5)
    I2C1->CTLR1 &= ~I2C_CTLR1_SWRST;
 364:	4007d703          	lhu	a4,1024(a5)
 368:	400006b7          	lui	a3,0x40000
 36c:	0746                	slli	a4,a4,0x11
 36e:	8345                	srli	a4,a4,0x11
 370:	40e79023          	sh	a4,1024(a5)

    // Set module clock frequency
    uint32_t prerate = 2000000; // I2C Logic clock rate, must be higher than the bus clock rate
    I2C1->CTLR2 |= (FUNCONF_SYSTEM_CORE_CLOCK/prerate) & I2C_CTLR2_FREQ;
 374:	4047d703          	lhu	a4,1028(a5)
 378:	01876713          	ori	a4,a4,24
 37c:	40e79223          	sh	a4,1028(a5)

    // Enable interrupts
    I2C1->CTLR2 |= I2C_CTLR2_ITBUFEN | I2C_CTLR2_ITEVTEN | I2C_CTLR2_ITERREN;
 380:	4047d703          	lhu	a4,1028(a5)
 384:	70076713          	ori	a4,a4,1792
 388:	40e79223          	sh	a4,1028(a5)
 38c:	e000e737          	lui	a4,0xe000e
 390:	10d72023          	sw	a3,256(a4) # e000e100 <_eusrstack+0xc000d900>
	NVIC->IPRIOR[(uint32_t)(IRQn)] = priority;
 394:	02000693          	li	a3,32
 398:	40d70f23          	sb	a3,1054(a4)
	NVIC->IENR[((uint32_t)(IRQn) >> 5)] = (1 << ((uint32_t)(IRQn) & 0x1F));
 39c:	10c72023          	sw	a2,256(a4)
	NVIC->IPRIOR[(uint32_t)(IRQn)] = priority;
 3a0:	40d70fa3          	sb	a3,1055(a4)
    NVIC_EnableIRQ(I2C1_ER_IRQn); // Error interrupt
    NVIC_SetPriority(I2C1_ER_IRQn, 2 << 4);

    // Set clock configuration
    uint32_t clockrate = 1000000; // I2C Bus clock rate, must be lower than the logic clock rate
    I2C1->CKCFGR = ((FUNCONF_SYSTEM_CORE_CLOCK/(3*clockrate))&I2C_CKCFGR_CCR) | I2C_CKCFGR_FS; // Fast mode 33% duty cycle
 3a4:	7761                	lui	a4,0xffff8
 3a6:	0741                	addi	a4,a4,16 # ffff8010 <_eusrstack+0xdfff7810>
 3a8:	40e79e23          	sh	a4,1052(a5)
    //I2C1->CKCFGR = ((FUNCONF_SYSTEM_CORE_CLOCK/(25*clockrate))&I2C_CKCFGR_CCR) | I2C_CKCFGR_DUTY | I2C_CKCFGR_FS; // Fast mode 36% duty cycle
    //I2C1->CKCFGR = (FUNCONF_SYSTEM_CORE_CLOCK/(2*clockrate))&I2C_CKCFGR_CCR; // Standard mode good to 100kHz

    // Set I2C address
    I2C1->OADDR1 = address << 1;
 3ac:	4749                	li	a4,18
 3ae:	40e79423          	sh	a4,1032(a5)
    I2C1->OADDR2 = 0;
 3b2:	40079623          	sh	zero,1036(a5)

    // Enable I2C
    I2C1->CTLR1 |= I2C_CTLR1_PE;
 3b6:	4007d703          	lhu	a4,1024(a5)
 3ba:	00176713          	ori	a4,a4,1
 3be:	40e79023          	sh	a4,1024(a5)

    // Acknowledge bytes when they are received
    I2C1->CTLR1 |= I2C_CTLR1_ACK;
 3c2:	4007d703          	lhu	a4,1024(a5)
 3c6:	40076713          	ori	a4,a4,1024
 3ca:	40e79023          	sh	a4,1024(a5)
 3ce:	3335                	jal	fa <hc595_shiftOut8>
    uint8_t last_character = 0xFF;
 3d0:	86a2                	mv	a3,s0
 3d2:	c0418613          	addi	a2,gp,-1020 # 20000000 <i2c_registers>

    while (1)
    {
        uint8_t character = i2c_registers[0];
 3d6:	c041c783          	lbu	a5,-1020(gp) # 20000000 <i2c_registers>
 3da:	8722                	mv	a4,s0
        uint8_t decimal_point = i2c_registers[1];
 3dc:	00164403          	lbu	s0,1(a2) # 80000001 <_eusrstack+0x5ffff801>
 3e0:	85b6                	mv	a1,a3
        uint8_t character = i2c_registers[0];
 3e2:	0ff7f693          	zext.b	a3,a5
        uint8_t decimal_point = i2c_registers[1];
 3e6:	0ff47413          	zext.b	s0,s0

        /*
         * Update only after a new character or DP flag arrives.
         * This avoids needlessly clocking the TPIC continuously.
         */
        if ((character != last_character) ||
 3ea:	00f59463          	bne	a1,a5,3f2 <main+0x19a>
 3ee:	02870763          	beq	a4,s0,41c <main+0x1c4>
    switch (character)
 3f2:	fd368713          	addi	a4,a3,-45 # 3fffffd3 <_eusrstack+0x1ffff7d3>
 3f6:	0ff77713          	zext.b	a4,a4
 3fa:	47b1                	li	a5,12
    uint8_t last_character = 0xFF;
 3fc:	4501                	li	a0,0
 3fe:	00e7e763          	bltu	a5,a4,40c <main+0x1b4>
 402:	64400793          	li	a5,1604
 406:	97ba                	add	a5,a5,a4
 408:	0007c503          	lbu	a0,0(a5)
            (decimal_point != last_decimal_point))
        {
            uint8_t segments = segments_for_character(character);

            if (decimal_point)
 40c:	c019                	beqz	s0,412 <main+0x1ba>
            {
                segments |= SEG_DP;
 40e:	00156513          	ori	a0,a0,1
 412:	c036                	sw	a3,0(sp)
            }

            hc595_shiftOut8(segments);
 414:	31dd                	jal	fa <hc595_shiftOut8>
 416:	4682                	lw	a3,0(sp)
 418:	c0418613          	addi	a2,gp,-1020 # 20000000 <i2c_registers>
	uint32_t targend = SysTick->CNT + n;
 41c:	e000f5b7          	lui	a1,0xe000f
 420:	4598                	lw	a4,8(a1)
 422:	67bd                	lui	a5,0xf
 424:	a6078793          	addi	a5,a5,-1440 # ea60 <I2C_7segment.c.aa46ddcc+0xc759>
 428:	973e                	add	a4,a4,a5
	while( ((int32_t)( SysTick->CNT - targend )) < 0 );
 42a:	459c                	lw	a5,8(a1)
 42c:	8f99                	sub	a5,a5,a4
 42e:	fe07cee3          	bltz	a5,42a <main+0x1d2>
 432:	b755                	j	3d6 <main+0x17e>

00000434 <I2C1_EV_IRQHandler>:
void SetSecondaryI2CSlaveReadOnly(bool read_only) {
    i2c_slave_state.read_only2 = read_only;
}

void I2C1_EV_IRQHandler(void) __attribute__((interrupt));
void I2C1_EV_IRQHandler(void) {
 434:	7179                	addi	sp,sp,-48
 436:	c03e                	sw	a5,0(sp)
    uint16_t STAR1, STAR2 __attribute__((unused));
    STAR1 = I2C1->STAR1;
 438:	400057b7          	lui	a5,0x40005
void I2C1_EV_IRQHandler(void) {
 43c:	c23a                	sw	a4,4(sp)
    STAR1 = I2C1->STAR1;
 43e:	4147d703          	lhu	a4,1044(a5) # 40005414 <_eusrstack+0x20004c14>
 442:	40078793          	addi	a5,a5,1024
    STAR2 = I2C1->STAR2;
 446:	0187d783          	lhu	a5,24(a5)
void I2C1_EV_IRQHandler(void) {
 44a:	cc26                	sw	s1,24(sp)
 44c:	d606                	sw	ra,44(sp)
    STAR1 = I2C1->STAR1;
 44e:	01071493          	slli	s1,a4,0x10
void I2C1_EV_IRQHandler(void) {
 452:	d416                	sw	t0,40(sp)
 454:	d21a                	sw	t1,36(sp)
 456:	d01e                	sw	t2,32(sp)
 458:	ce22                	sw	s0,28(sp)
 45a:	ca2a                	sw	a0,20(sp)
 45c:	c82e                	sw	a1,16(sp)
 45e:	c632                	sw	a2,12(sp)
 460:	c436                	sw	a3,8(sp)

    if (STAR1 & I2C_STAR1_ADDR) { // Start event
 462:	8b09                	andi	a4,a4,2
    STAR1 = I2C1->STAR1;
 464:	80c1                	srli	s1,s1,0x10
    if (STAR1 & I2C_STAR1_ADDR) { // Start event
 466:	c305                	beqz	a4,486 <I2C1_EV_IRQHandler+0x52>
        i2c_slave_state.first_write = 1; // Next write will be the offset
 468:	c0c18713          	addi	a4,gp,-1012 # 20000008 <i2c_slave_state>
 46c:	4685                	li	a3,1
 46e:	07c2                	slli	a5,a5,0x10
 470:	83c1                	srli	a5,a5,0x10
 472:	00d70023          	sb	a3,0(a4)
        i2c_slave_state.position = i2c_slave_state.offset; // Reset position
 476:	00174683          	lbu	a3,1(a4)
        i2c_slave_state.address2matched = !!(STAR2 & I2C_STAR2_DUALF);
 47a:	839d                	srli	a5,a5,0x7
 47c:	8b85                	andi	a5,a5,1
        i2c_slave_state.position = i2c_slave_state.offset; // Reset position
 47e:	00d70123          	sb	a3,2(a4)
        i2c_slave_state.address2matched = !!(STAR2 & I2C_STAR2_DUALF);
 482:	02f70523          	sb	a5,42(a4)
    }

    if (STAR1 & I2C_STAR1_RXNE) { // Write event
 486:	0404f793          	andi	a5,s1,64
 48a:	c795                	beqz	a5,4b6 <I2C1_EV_IRQHandler+0x82>
        if (i2c_slave_state.first_write) { // First byte written, set the offset
 48c:	c0c18793          	addi	a5,gp,-1012 # 20000008 <i2c_slave_state>
 490:	0007c703          	lbu	a4,0(a5)
 494:	c369                	beqz	a4,556 <I2C1_EV_IRQHandler+0x122>
            i2c_slave_state.offset = I2C1->DATAR;
 496:	40005737          	lui	a4,0x40005
 49a:	40070713          	addi	a4,a4,1024 # 40005400 <_eusrstack+0x20004c00>
 49e:	01075703          	lhu	a4,16(a4)
            i2c_slave_state.position = i2c_slave_state.offset;
            i2c_slave_state.first_write = 0;
 4a2:	00078023          	sb	zero,0(a5)
            i2c_slave_state.writing = false;
 4a6:	020784a3          	sb	zero,41(a5)
            i2c_slave_state.offset = I2C1->DATAR;
 4aa:	0ff77713          	zext.b	a4,a4
 4ae:	00e780a3          	sb	a4,1(a5)
            i2c_slave_state.position = i2c_slave_state.offset;
 4b2:	00e78123          	sb	a4,2(a5)
                }
            }
        }
    }

    if (STAR1 & I2C_STAR1_TXE) { // Read event
 4b6:	0804f793          	andi	a5,s1,128
 4ba:	c7a1                	beqz	a5,502 <I2C1_EV_IRQHandler+0xce>
        i2c_slave_state.writing = false;
 4bc:	c0c18793          	addi	a5,gp,-1012 # 20000008 <i2c_slave_state>
        if (i2c_slave_state.address2matched) {
 4c0:	02a7c703          	lbu	a4,42(a5)
            if (i2c_slave_state.position < i2c_slave_state.size2) {
 4c4:	0027c503          	lbu	a0,2(a5)
        i2c_slave_state.writing = false;
 4c8:	020784a3          	sb	zero,41(a5)
        if (i2c_slave_state.address2matched) {
 4cc:	400057b7          	lui	a5,0x40005
 4d0:	40078793          	addi	a5,a5,1024 # 40005400 <_eusrstack+0x20004c00>
 4d4:	c0c18413          	addi	s0,gp,-1012 # 20000008 <i2c_slave_state>
 4d8:	cb69                	beqz	a4,5aa <I2C1_EV_IRQHandler+0x176>
            if (i2c_slave_state.position < i2c_slave_state.size2) {
 4da:	01044703          	lbu	a4,16(s0)
 4de:	0ee57463          	bgeu	a0,a4,5c6 <I2C1_EV_IRQHandler+0x192>
                I2C1->DATAR = i2c_slave_state.registers2[i2c_slave_state.position];
 4e2:	4458                	lw	a4,12(s0)
 4e4:	972a                	add	a4,a4,a0
 4e6:	00074703          	lbu	a4,0(a4)
 4ea:	0ff77713          	zext.b	a4,a4
 4ee:	00e79823          	sh	a4,16(a5)
                if (i2c_slave_state.read_callback2 != NULL) {
 4f2:	505c                	lw	a5,36(s0)
                I2C1->DATAR = 0x00;
            }
        } else {
            if (i2c_slave_state.position < i2c_slave_state.size1) {
                I2C1->DATAR = i2c_slave_state.registers1[i2c_slave_state.position];
                if (i2c_slave_state.read_callback1 != NULL) {
 4f4:	c391                	beqz	a5,4f8 <I2C1_EV_IRQHandler+0xc4>
                    i2c_slave_state.read_callback1(i2c_slave_state.position);
 4f6:	9782                	jalr	a5
                }
                i2c_slave_state.position++;
 4f8:	00244783          	lbu	a5,2(s0)
 4fc:	0785                	addi	a5,a5,1
 4fe:	00f40123          	sb	a5,2(s0)
                I2C1->DATAR = 0x00;
            }
        }
    }

    if (STAR1 & I2C_STAR1_STOPF) { // Stop event
 502:	88c1                	andi	s1,s1,16
 504:	c895                	beqz	s1,538 <I2C1_EV_IRQHandler+0x104>
        I2C1->CTLR1 &= ~(I2C_CTLR1_STOP); // Clear stop
 506:	400057b7          	lui	a5,0x40005
 50a:	4007d703          	lhu	a4,1024(a5) # 40005400 <_eusrstack+0x20004c00>
 50e:	66c1                	lui	a3,0x10
 510:	dff68693          	addi	a3,a3,-513 # fdff <I2C_7segment.c.aa46ddcc+0xdaf8>
 514:	8f75                	and	a4,a4,a3
 516:	40e79023          	sh	a4,1024(a5)
        if (i2c_slave_state.address2matched) {
 51a:	c0c18793          	addi	a5,gp,-1012 # 20000008 <i2c_slave_state>
 51e:	02a7c703          	lbu	a4,42(a5)
 522:	c74d                	beqz	a4,5cc <I2C1_EV_IRQHandler+0x198>
            if (i2c_slave_state.write_callback2 != NULL) {
 524:	5398                	lw	a4,32(a5)
                i2c_slave_state.write_callback2(i2c_slave_state.offset, i2c_slave_state.position - i2c_slave_state.offset);
            }
        } else {
            if (i2c_slave_state.write_callback1 != NULL) {
 526:	cb09                	beqz	a4,538 <I2C1_EV_IRQHandler+0x104>
                i2c_slave_state.write_callback1(i2c_slave_state.offset, i2c_slave_state.position - i2c_slave_state.offset);
 528:	0017c503          	lbu	a0,1(a5)
 52c:	0027c583          	lbu	a1,2(a5)
 530:	8d89                	sub	a1,a1,a0
 532:	0ff5f593          	zext.b	a1,a1
 536:	9702                	jalr	a4
            }
        }
    }
}
 538:	4472                	lw	s0,28(sp)
 53a:	50b2                	lw	ra,44(sp)
 53c:	52a2                	lw	t0,40(sp)
 53e:	5312                	lw	t1,36(sp)
 540:	5382                	lw	t2,32(sp)
 542:	44e2                	lw	s1,24(sp)
 544:	4552                	lw	a0,20(sp)
 546:	45c2                	lw	a1,16(sp)
 548:	4632                	lw	a2,12(sp)
 54a:	46a2                	lw	a3,8(sp)
 54c:	4712                	lw	a4,4(sp)
 54e:	4782                	lw	a5,0(sp)
 550:	6145                	addi	sp,sp,48
 552:	30200073          	mret
            if (i2c_slave_state.address2matched) {
 556:	02a7c683          	lbu	a3,42(a5)
            i2c_slave_state.writing = true;
 55a:	4705                	li	a4,1
 55c:	02e784a3          	sb	a4,41(a5)
                if (i2c_slave_state.position < i2c_slave_state.size2 && !i2c_slave_state.read_only2) {
 560:	0027c703          	lbu	a4,2(a5)
            if (i2c_slave_state.address2matched) {
 564:	c695                	beqz	a3,590 <I2C1_EV_IRQHandler+0x15c>
                if (i2c_slave_state.position < i2c_slave_state.size2 && !i2c_slave_state.read_only2) {
 566:	0107c683          	lbu	a3,16(a5)
 56a:	f4d776e3          	bgeu	a4,a3,4b6 <I2C1_EV_IRQHandler+0x82>
 56e:	0287c683          	lbu	a3,40(a5)
 572:	f2b1                	bnez	a3,4b6 <I2C1_EV_IRQHandler+0x82>
                    i2c_slave_state.registers2[i2c_slave_state.position] = I2C1->DATAR;
 574:	400056b7          	lui	a3,0x40005
 578:	4106d603          	lhu	a2,1040(a3) # 40005410 <_eusrstack+0x20004c10>
 57c:	47d4                	lw	a3,12(a5)
                    i2c_slave_state.registers1[i2c_slave_state.position] = I2C1->DATAR;
 57e:	96ba                	add	a3,a3,a4
 580:	0ff67613          	zext.b	a2,a2
 584:	00c68023          	sb	a2,0(a3)
                    i2c_slave_state.position++;
 588:	0705                	addi	a4,a4,1
 58a:	00e78123          	sb	a4,2(a5)
 58e:	b725                	j	4b6 <I2C1_EV_IRQHandler+0x82>
                if (i2c_slave_state.position < i2c_slave_state.size1 && !i2c_slave_state.read_only1) {
 590:	0087c683          	lbu	a3,8(a5)
 594:	f2d771e3          	bgeu	a4,a3,4b6 <I2C1_EV_IRQHandler+0x82>
 598:	01c7c683          	lbu	a3,28(a5)
 59c:	fe89                	bnez	a3,4b6 <I2C1_EV_IRQHandler+0x82>
                    i2c_slave_state.registers1[i2c_slave_state.position] = I2C1->DATAR;
 59e:	400056b7          	lui	a3,0x40005
 5a2:	4106d603          	lhu	a2,1040(a3) # 40005410 <_eusrstack+0x20004c10>
 5a6:	43d4                	lw	a3,4(a5)
 5a8:	bfd9                	j	57e <I2C1_EV_IRQHandler+0x14a>
            if (i2c_slave_state.position < i2c_slave_state.size1) {
 5aa:	00844703          	lbu	a4,8(s0)
 5ae:	00e57c63          	bgeu	a0,a4,5c6 <I2C1_EV_IRQHandler+0x192>
                I2C1->DATAR = i2c_slave_state.registers1[i2c_slave_state.position];
 5b2:	4058                	lw	a4,4(s0)
 5b4:	972a                	add	a4,a4,a0
 5b6:	00074703          	lbu	a4,0(a4)
 5ba:	0ff77713          	zext.b	a4,a4
 5be:	00e79823          	sh	a4,16(a5)
                if (i2c_slave_state.read_callback1 != NULL) {
 5c2:	4c1c                	lw	a5,24(s0)
 5c4:	bf05                	j	4f4 <I2C1_EV_IRQHandler+0xc0>
                I2C1->DATAR = 0x00;
 5c6:	00079823          	sh	zero,16(a5)
 5ca:	bf25                	j	502 <I2C1_EV_IRQHandler+0xce>
            if (i2c_slave_state.write_callback1 != NULL) {
 5cc:	4bd8                	lw	a4,20(a5)
 5ce:	bfa1                	j	526 <I2C1_EV_IRQHandler+0xf2>

000005d0 <I2C1_ER_IRQHandler>:

void I2C1_ER_IRQHandler(void) __attribute__((interrupt));
void I2C1_ER_IRQHandler(void) {
 5d0:	1141                	addi	sp,sp,-16
 5d2:	c03e                	sw	a5,0(sp)
    uint16_t STAR1 = I2C1->STAR1;
 5d4:	400057b7          	lui	a5,0x40005
void I2C1_ER_IRQHandler(void) {
 5d8:	c436                	sw	a3,8(sp)
    uint16_t STAR1 = I2C1->STAR1;
 5da:	4147d683          	lhu	a3,1044(a5) # 40005414 <_eusrstack+0x20004c14>
void I2C1_ER_IRQHandler(void) {
 5de:	c23a                	sw	a4,4(sp)
 5e0:	c632                	sw	a2,12(sp)
    uint16_t STAR1 = I2C1->STAR1;
 5e2:	01069713          	slli	a4,a3,0x10

    if (STAR1 & I2C_STAR1_BERR) { // Bus error
 5e6:	1006f693          	andi	a3,a3,256
    uint16_t STAR1 = I2C1->STAR1;
 5ea:	8341                	srli	a4,a4,0x10
    if (STAR1 & I2C_STAR1_BERR) { // Bus error
 5ec:	ca99                	beqz	a3,602 <I2C1_ER_IRQHandler+0x32>
        I2C1->STAR1 &= ~(I2C_STAR1_BERR); // Clear error
 5ee:	4147d683          	lhu	a3,1044(a5)
 5f2:	6641                	lui	a2,0x10
 5f4:	eff60613          	addi	a2,a2,-257 # feff <I2C_7segment.c.aa46ddcc+0xdbf8>
 5f8:	8ef1                	and	a3,a3,a2
 5fa:	40078793          	addi	a5,a5,1024
 5fe:	00d79a23          	sh	a3,20(a5)
    }

    if (STAR1 & I2C_STAR1_ARLO) { // Arbitration lost error
 602:	20077793          	andi	a5,a4,512
 606:	cb99                	beqz	a5,61c <I2C1_ER_IRQHandler+0x4c>
        I2C1->STAR1 &= ~(I2C_STAR1_ARLO); // Clear error
 608:	400057b7          	lui	a5,0x40005
 60c:	4147d683          	lhu	a3,1044(a5) # 40005414 <_eusrstack+0x20004c14>
 610:	6641                	lui	a2,0x10
 612:	dff60613          	addi	a2,a2,-513 # fdff <I2C_7segment.c.aa46ddcc+0xdaf8>
 616:	8ef1                	and	a3,a3,a2
 618:	40d79a23          	sh	a3,1044(a5)
    }

    if (STAR1 & I2C_STAR1_AF) { // Acknowledge failure
 61c:	40077713          	andi	a4,a4,1024
 620:	cb19                	beqz	a4,636 <I2C1_ER_IRQHandler+0x66>
        I2C1->STAR1 &= ~(I2C_STAR1_AF); // Clear error
 622:	400057b7          	lui	a5,0x40005
 626:	4147d703          	lhu	a4,1044(a5) # 40005414 <_eusrstack+0x20004c14>
 62a:	66c1                	lui	a3,0x10
 62c:	bff68693          	addi	a3,a3,-1025 # fbff <I2C_7segment.c.aa46ddcc+0xd8f8>
 630:	8f75                	and	a4,a4,a3
 632:	40e79a23          	sh	a4,1044(a5)
    }
}
 636:	4632                	lw	a2,12(sp)
 638:	46a2                	lw	a3,8(sp)
 63a:	4712                	lw	a4,4(sp)
 63c:	4782                	lw	a5,0(sp)
 63e:	0141                	addi	sp,sp,16
 640:	30200073          	mret

00000644 <CSWTCH.6>:
 644:	fc000002 66f2da60 fee0beb6 000000f6     ....`..f........
